target datalayout = "e-m:e-p270:32:32-p271:32:32-p272:64:64-i64:64-i128:128-f80:128-n8:16:32:64-S128"
target triple = "x86_64-pc-linux-gnu"

%struct.RSA_PKEY_CTX = type { i32, ptr, i32, [2 x i32], i32, ptr, ptr, i32, i32, ptr, ptr, i64, i32 }
%struct.evp_pkey_ctx_st = type { i32, ptr, ptr, ptr, ptr, %union.anon, %struct.anon.4, ptr, ptr, ptr, i32, i32, ptr, ptr, ptr, ptr, ptr, i8, ptr }
%union.anon = type { %struct.anon.0 }
%struct.anon.0 = type { ptr, ptr }
%struct.anon.4 = type { ptr, ptr, i64, i8 }

@.str = private unnamed_addr constant [34 x i8] c"../openssl/crypto/rsa/rsa_pmeth.c\00", align 1

; Function Attrs: inlinehint nounwind uwtable
define internal i32 @value_barrier(i32 noundef %0) #5 {
  %2 = alloca i32, align 4
  %3 = alloca i32, align 4
  store i32 %0, ptr %2, align 4, !tbaa !47
  call void @llvm.lifetime.start.p0(i64 4, ptr %3) #8
  %4 = load i32, ptr %2, align 4, !tbaa !47
  %5 = call i32 asm "", "=r,0,~{dirflag},~{fpsr},~{flags}"(i32 %4) #10, !srcloc !70
  store i32 %5, ptr %3, align 4, !tbaa !47
  %6 = load i32, ptr %3, align 4, !tbaa !47
  call void @llvm.lifetime.end.p0(i64 4, ptr %3) #8
  ret i32 %6
}

; Function Attrs: inlinehint nounwind uwtable
define internal i32 @constant_time_select(i32 noundef %0, i32 noundef %1, i32 noundef %2) #5 {
  %4 = alloca i32, align 4
  %5 = alloca i32, align 4
  %6 = alloca i32, align 4
  store i32 %0, ptr %4, align 4, !tbaa !47
  store i32 %1, ptr %5, align 4, !tbaa !47
  store i32 %2, ptr %6, align 4, !tbaa !47
  %7 = load i32, ptr %4, align 4, !tbaa !47
  %8 = call i32 @value_barrier(i32 noundef %7)
  %9 = load i32, ptr %5, align 4, !tbaa !47
  %10 = and i32 %8, %9
  %11 = load i32, ptr %4, align 4, !tbaa !47
  %12 = xor i32 %11, -1
  %13 = call i32 @value_barrier(i32 noundef %12)
  %14 = load i32, ptr %6, align 4, !tbaa !47
  %15 = and i32 %13, %14
  %16 = or i32 %10, %15
  ret i32 %16
}

; Function Attrs: inlinehint nounwind uwtable
define internal i64 @value_barrier_s(i64 noundef %0) #5 {
  %2 = alloca i64, align 8
  %3 = alloca i64, align 8
  store i64 %0, ptr %2, align 8, !tbaa !51
  call void @llvm.lifetime.start.p0(i64 8, ptr %3) #8
  %4 = load i64, ptr %2, align 8, !tbaa !51
  %5 = call i64 asm "", "=r,0,~{dirflag},~{fpsr},~{flags}"(i64 %4) #10, !srcloc !69
  store i64 %5, ptr %3, align 8, !tbaa !51
  %6 = load i64, ptr %3, align 8, !tbaa !51
  call void @llvm.lifetime.end.p0(i64 8, ptr %3) #8
  ret i64 %6
}

; Function Attrs: inlinehint nounwind uwtable
define internal i32 @constant_time_select_int(i32 noundef %0, i32 noundef %1, i32 noundef %2) #5 {
  %4 = alloca i32, align 4
  %5 = alloca i32, align 4
  %6 = alloca i32, align 4
  store i32 %0, ptr %4, align 4, !tbaa !47
  store i32 %1, ptr %5, align 4, !tbaa !47
  store i32 %2, ptr %6, align 4, !tbaa !47
  %7 = load i32, ptr %4, align 4, !tbaa !47
  %8 = load i32, ptr %5, align 4, !tbaa !47
  %9 = load i32, ptr %6, align 4, !tbaa !47
  %10 = call i32 @constant_time_select(i32 noundef %7, i32 noundef %8, i32 noundef %9)
  ret i32 %10
}

; Function Attrs: inlinehint nounwind uwtable
define internal i32 @constant_time_msb(i32 noundef %0) #5 {
  %2 = alloca i32, align 4
  store i32 %0, ptr %2, align 4, !tbaa !47
  %3 = load i32, ptr %2, align 4, !tbaa !47
  %4 = lshr i32 %3, 31
  %5 = sub i32 0, %4
  ret i32 %5
}

; Function Attrs: inlinehint nounwind uwtable
define internal i64 @constant_time_select_s(i64 noundef %0, i64 noundef %1, i64 noundef %2) #5 {
  %4 = alloca i64, align 8
  %5 = alloca i64, align 8
  %6 = alloca i64, align 8
  store i64 %0, ptr %4, align 8, !tbaa !51
  store i64 %1, ptr %5, align 8, !tbaa !51
  store i64 %2, ptr %6, align 8, !tbaa !51
  %7 = load i64, ptr %4, align 8, !tbaa !51
  %8 = call i64 @value_barrier_s(i64 noundef %7)
  %9 = load i64, ptr %5, align 8, !tbaa !51
  %10 = and i64 %8, %9
  %11 = load i64, ptr %4, align 8, !tbaa !51
  %12 = xor i64 %11, -1
  %13 = call i64 @value_barrier_s(i64 noundef %12)
  %14 = load i64, ptr %6, align 8, !tbaa !51
  %15 = and i64 %13, %14
  %16 = or i64 %10, %15
  ret i64 %16
}

; Function Attrs: inlinehint nounwind uwtable
define internal i64 @constant_time_msb_s(i64 noundef %0) #5 {
  %2 = alloca i64, align 8
  store i64 %0, ptr %2, align 8, !tbaa !51
  %3 = load i64, ptr %2, align 8, !tbaa !51
  %4 = lshr i64 %3, 63
  %5 = sub i64 0, %4
  ret i64 %5
}

; Function Attrs: nounwind uwtable
define internal i32 @setup_tbuf(ptr noundef %0, ptr noundef %1) #0 {
  %3 = alloca i32, align 4
  %4 = alloca ptr, align 8
  %5 = alloca ptr, align 8
  store ptr %0, ptr %4, align 8, !tbaa !8
  store ptr %1, ptr %5, align 8, !tbaa !3
  %6 = load ptr, ptr %4, align 8, !tbaa !8
  %7 = getelementptr inbounds nuw %struct.RSA_PKEY_CTX, ptr %6, i32 0, i32 9
  %8 = load ptr, ptr %7, align 8, !tbaa !40
  %9 = icmp ne ptr %8, null
  br i1 %9, label %10, label %11

10:                                               ; preds = %2
  store i32 1, ptr %3, align 4
  br label %24

11:                                               ; preds = %2
  %12 = load ptr, ptr %5, align 8, !tbaa !3
  %13 = getelementptr inbounds nuw %struct.evp_pkey_ctx_st, ptr %12, i32 0, i32 14
  %14 = load ptr, ptr %13, align 8, !tbaa !52
  %15 = call ptr @EVP_PKEY_get0_RSA(ptr noundef %14)
  %16 = call i32 @RSA_size(ptr noundef %15)
  %17 = sext i32 %16 to i64
  %18 = call noalias ptr @CRYPTO_malloc(i64 noundef %17, ptr noundef @.str, i32 noundef 119)
  %19 = load ptr, ptr %4, align 8, !tbaa !8
  %20 = getelementptr inbounds nuw %struct.RSA_PKEY_CTX, ptr %19, i32 0, i32 9
  store ptr %18, ptr %20, align 8, !tbaa !40
  %21 = icmp eq ptr %18, null
  br i1 %21, label %22, label %23

22:                                               ; preds = %11
  store i32 0, ptr %3, align 4
  br label %24

23:                                               ; preds = %11
  store i32 1, ptr %3, align 4
  br label %24

24:                                               ; preds = %23, %22, %10
  %25 = load i32, ptr %3, align 4
  ret i32 %25
}

; Function Attrs: nounwind uwtable
define internal i32 @pkey_rsa_decrypt(ptr noundef %0, ptr noundef %1, ptr noundef %2, ptr noundef %3, i64 noundef %4) #0 {
  %6 = alloca i32, align 4
  %7 = alloca ptr, align 8
  %8 = alloca ptr, align 8
  %9 = alloca ptr, align 8
  %10 = alloca ptr, align 8
  %11 = alloca i64, align 8
  %12 = alloca i32, align 4
  %13 = alloca i32, align 4
  %14 = alloca ptr, align 8
  %15 = alloca ptr, align 8
  %16 = alloca i32, align 4
  store ptr %0, ptr %7, align 8, !tbaa !3
  store ptr %1, ptr %8, align 8, !tbaa !48
  store ptr %2, ptr %9, align 8, !tbaa !49
  store ptr %3, ptr %10, align 8, !tbaa !48
  store i64 %4, ptr %11, align 8, !tbaa !51
  call void @llvm.lifetime.start.p0(i64 4, ptr %12) #8
  call void @llvm.lifetime.start.p0(i64 4, ptr %13) #8
  call void @llvm.lifetime.start.p0(i64 8, ptr %14) #8
  %17 = load ptr, ptr %7, align 8, !tbaa !3
  %18 = getelementptr inbounds nuw %struct.evp_pkey_ctx_st, ptr %17, i32 0, i32 16
  %19 = load ptr, ptr %18, align 8, !tbaa !32
  store ptr %19, ptr %14, align 8, !tbaa !8
  call void @llvm.lifetime.start.p0(i64 8, ptr %15) #8
  %20 = load ptr, ptr %7, align 8, !tbaa !3
  %21 = getelementptr inbounds nuw %struct.evp_pkey_ctx_st, ptr %20, i32 0, i32 14
  %22 = load ptr, ptr %21, align 8, !tbaa !52
  %23 = call ptr @EVP_PKEY_get0_RSA(ptr noundef %22)
  store ptr %23, ptr %15, align 8, !tbaa !42
  %24 = load ptr, ptr %14, align 8, !tbaa !8
  %25 = getelementptr inbounds nuw %struct.RSA_PKEY_CTX, ptr %24, i32 0, i32 4
  %26 = load i32, ptr %25, align 4, !tbaa !28
  %27 = icmp eq i32 %26, 4
  br i1 %27, label %28, label %69

28:                                               ; preds = %5
  %29 = load ptr, ptr %14, align 8, !tbaa !8
  %30 = load ptr, ptr %7, align 8, !tbaa !3
  %31 = call i32 @setup_tbuf(ptr noundef %29, ptr noundef %30)
  %32 = icmp ne i32 %31, 0
  br i1 %32, label %34, label %33

33:                                               ; preds = %28
  store i32 -1, ptr %6, align 4
  store i32 1, ptr %16, align 4
  br label %107

34:                                               ; preds = %28
  %35 = load i64, ptr %11, align 8, !tbaa !51
  %36 = trunc i64 %35 to i32
  %37 = load ptr, ptr %10, align 8, !tbaa !48
  %38 = load ptr, ptr %14, align 8, !tbaa !8
  %39 = getelementptr inbounds nuw %struct.RSA_PKEY_CTX, ptr %38, i32 0, i32 9
  %40 = load ptr, ptr %39, align 8, !tbaa !40
  %41 = load ptr, ptr %15, align 8, !tbaa !42
  %42 = call i32 @RSA_private_decrypt(i32 noundef %36, ptr noundef %37, ptr noundef %40, ptr noundef %41, i32 noundef 3)
  store i32 %42, ptr %12, align 4, !tbaa !47
  %43 = load i32, ptr %12, align 4, !tbaa !47
  %44 = icmp sle i32 %43, 0
  br i1 %44, label %45, label %47

45:                                               ; preds = %34
  %46 = load i32, ptr %12, align 4, !tbaa !47
  store i32 %46, ptr %6, align 4
  store i32 1, ptr %16, align 4
  br label %107

47:                                               ; preds = %34
  %48 = load ptr, ptr %8, align 8, !tbaa !48
  %49 = load i32, ptr %12, align 4, !tbaa !47
  %50 = load ptr, ptr %14, align 8, !tbaa !8
  %51 = getelementptr inbounds nuw %struct.RSA_PKEY_CTX, ptr %50, i32 0, i32 9
  %52 = load ptr, ptr %51, align 8, !tbaa !40
  %53 = load i32, ptr %12, align 4, !tbaa !47
  %54 = load i32, ptr %12, align 4, !tbaa !47
  %55 = load ptr, ptr %14, align 8, !tbaa !8
  %56 = getelementptr inbounds nuw %struct.RSA_PKEY_CTX, ptr %55, i32 0, i32 10
  %57 = load ptr, ptr %56, align 8, !tbaa !38
  %58 = load ptr, ptr %14, align 8, !tbaa !8
  %59 = getelementptr inbounds nuw %struct.RSA_PKEY_CTX, ptr %58, i32 0, i32 11
  %60 = load i64, ptr %59, align 8, !tbaa !39
  %61 = trunc i64 %60 to i32
  %62 = load ptr, ptr %14, align 8, !tbaa !8
  %63 = getelementptr inbounds nuw %struct.RSA_PKEY_CTX, ptr %62, i32 0, i32 5
  %64 = load ptr, ptr %63, align 8, !tbaa !36
  %65 = load ptr, ptr %14, align 8, !tbaa !8
  %66 = getelementptr inbounds nuw %struct.RSA_PKEY_CTX, ptr %65, i32 0, i32 6
  %67 = load ptr, ptr %66, align 8, !tbaa !37
  %68 = call i32 @RSA_padding_check_PKCS1_OAEP_mgf1(ptr noundef %48, i32 noundef %49, ptr noundef %52, i32 noundef %53, i32 noundef %54, ptr noundef %57, i32 noundef %61, ptr noundef %64, ptr noundef %67)
  store i32 %68, ptr %12, align 4, !tbaa !47
  br label %92

69:                                               ; preds = %5
  %70 = load ptr, ptr %14, align 8, !tbaa !8
  %71 = getelementptr inbounds nuw %struct.RSA_PKEY_CTX, ptr %70, i32 0, i32 4
  %72 = load i32, ptr %71, align 4, !tbaa !28
  %73 = icmp eq i32 %72, 1
  br i1 %73, label %74, label %80

74:                                               ; preds = %69
  %75 = load ptr, ptr %14, align 8, !tbaa !8
  %76 = getelementptr inbounds nuw %struct.RSA_PKEY_CTX, ptr %75, i32 0, i32 12
  %77 = load i32, ptr %76, align 8, !tbaa !31
  %78 = icmp eq i32 %77, 0
  br i1 %78, label %79, label %80

79:                                               ; preds = %74
  store i32 8, ptr %13, align 4, !tbaa !47
  br label %84

80:                                               ; preds = %74, %69
  %81 = load ptr, ptr %14, align 8, !tbaa !8
  %82 = getelementptr inbounds nuw %struct.RSA_PKEY_CTX, ptr %81, i32 0, i32 4
  %83 = load i32, ptr %82, align 4, !tbaa !28
  store i32 %83, ptr %13, align 4, !tbaa !47
  br label %84

84:                                               ; preds = %80, %79
  %85 = load i64, ptr %11, align 8, !tbaa !51
  %86 = trunc i64 %85 to i32
  %87 = load ptr, ptr %10, align 8, !tbaa !48
  %88 = load ptr, ptr %8, align 8, !tbaa !48
  %89 = load ptr, ptr %15, align 8, !tbaa !42
  %90 = load i32, ptr %13, align 4, !tbaa !47
  %91 = call i32 @RSA_private_decrypt(i32 noundef %86, ptr noundef %87, ptr noundef %88, ptr noundef %89, i32 noundef %90)
  store i32 %91, ptr %12, align 4, !tbaa !47
  br label %92

92:                                               ; preds = %84, %47
  %93 = load i32, ptr %12, align 4, !tbaa !47
  %94 = sext i32 %93 to i64
  %95 = call i64 @constant_time_msb_s(i64 noundef %94)
  %96 = load ptr, ptr %9, align 8, !tbaa !49
  %97 = load i64, ptr %96, align 8, !tbaa !51
  %98 = load i32, ptr %12, align 4, !tbaa !47
  %99 = sext i32 %98 to i64
  %100 = call i64 @constant_time_select_s(i64 noundef %95, i64 noundef %97, i64 noundef %99)
  %101 = load ptr, ptr %9, align 8, !tbaa !49
  store i64 %100, ptr %101, align 8, !tbaa !51
  %102 = load i32, ptr %12, align 4, !tbaa !47
  %103 = call i32 @constant_time_msb(i32 noundef %102)
  %104 = load i32, ptr %12, align 4, !tbaa !47
  %105 = call i32 @constant_time_select_int(i32 noundef %103, i32 noundef %104, i32 noundef 1)
  store i32 %105, ptr %12, align 4, !tbaa !47
  %106 = load i32, ptr %12, align 4, !tbaa !47
  store i32 %106, ptr %6, align 4
  store i32 1, ptr %16, align 4
  br label %107

107:                                              ; preds = %92, %45, %33
  call void @llvm.lifetime.end.p0(i64 8, ptr %15) #8
  call void @llvm.lifetime.end.p0(i64 8, ptr %14) #8
  call void @llvm.lifetime.end.p0(i64 4, ptr %13) #8
  call void @llvm.lifetime.end.p0(i64 4, ptr %12) #8
  %108 = load i32, ptr %6, align 4
  ret i32 %108
}