; Function Attrs: nounwind uwtable
define internal i32 @pkey_rsa_decrypt(ptr noundef readonly captures(none) %0, ptr noundef %1, ptr noundef captures(none) %2, ptr noundef %3, i64 noundef %4) #1 {
  %6 = getelementptr inbounds nuw i8, ptr %0, i64 152
  %7 = load ptr, ptr %6, align 8, !tbaa !29
  %8 = getelementptr inbounds nuw i8, ptr %0, i64 136
  %9 = load ptr, ptr %8, align 8, !tbaa !51
  %10 = tail call ptr @EVP_PKEY_get0_RSA(ptr noundef %9) #9
  %11 = getelementptr inbounds nuw i8, ptr %7, i64 28
  %12 = load i32, ptr %11, align 4, !tbaa !25
  switch i32 %12, label %41 [
    i32 4, label %13
    i32 1, label %37
  ]

13:                                               ; preds = %5
  %14 = getelementptr inbounds nuw i8, ptr %7, i64 56
  %15 = load ptr, ptr %14, align 8, !tbaa !37
  %.not.i = icmp eq ptr %15, null
  br i1 %.not.i, label %setup_tbuf.exit, label %setup_tbuf.exit.thread

setup_tbuf.exit:                                  ; preds = %13
  %16 = load ptr, ptr %8, align 8, !tbaa !51
  %17 = tail call ptr @EVP_PKEY_get0_RSA(ptr noundef %16) #9
  %18 = tail call i32 @RSA_size(ptr noundef %17) #9
  %19 = sext i32 %18 to i64
  %20 = tail call noalias ptr @CRYPTO_malloc(i64 noundef %19, ptr noundef nonnull @.str, i32 noundef 119) #9
  store ptr %20, ptr %14, align 8, !tbaa !37
  %.not42 = icmp eq ptr %20, null
  br i1 %.not42, label %60, label %setup_tbuf.exit.thread

setup_tbuf.exit.thread:                           ; preds = %13, %setup_tbuf.exit
  %21 = phi ptr [ %15, %13 ], [ %20, %setup_tbuf.exit ]
  %22 = trunc i64 %4 to i32
  %23 = tail call i32 @RSA_private_decrypt(i32 noundef %22, ptr noundef %3, ptr noundef nonnull %21, ptr noundef %10, i32 noundef 3) #9
  %24 = icmp slt i32 %23, 1
  br i1 %24, label %60, label %25

25:                                               ; preds = %setup_tbuf.exit.thread
  %26 = load ptr, ptr %14, align 8, !tbaa !37
  %27 = getelementptr inbounds nuw i8, ptr %7, i64 64
  %28 = load ptr, ptr %27, align 8, !tbaa !35
  %29 = getelementptr inbounds nuw i8, ptr %7, i64 72
  %30 = load i64, ptr %29, align 8, !tbaa !36
  %31 = trunc i64 %30 to i32
  %32 = getelementptr inbounds nuw i8, ptr %7, i64 32
  %33 = load ptr, ptr %32, align 8, !tbaa !33
  %34 = getelementptr inbounds nuw i8, ptr %7, i64 40
  %35 = load ptr, ptr %34, align 8, !tbaa !34
  %36 = tail call i32 @RSA_padding_check_PKCS1_OAEP_mgf1(ptr noundef %1, i32 noundef %23, ptr noundef %26, i32 noundef %23, i32 noundef %23, ptr noundef %28, i32 noundef %31, ptr noundef %33, ptr noundef %35) #9
  br label %45

37:                                               ; preds = %5
  %38 = getelementptr inbounds nuw i8, ptr %7, i64 80
  %39 = load i32, ptr %38, align 8, !tbaa !28
  %40 = icmp eq i32 %39, 0
  br i1 %40, label %42, label %41

41:                                               ; preds = %5, %37
  br label %42

42:                                               ; preds = %37, %41
  %.036 = phi i32 [ %12, %41 ], [ 8, %37 ]
  %43 = trunc i64 %4 to i32
  %44 = tail call i32 @RSA_private_decrypt(i32 noundef %43, ptr noundef %3, ptr noundef %1, ptr noundef %10, i32 noundef %.036) #9
  br label %45

45:                                               ; preds = %42, %25
  %.035 = phi i32 [ %36, %25 ], [ %44, %42 ]
  %46 = sext i32 %.035 to i64
  %.neg.i = ashr i64 %46, 63
  %47 = load i64, ptr %2, align 8, !tbaa !54
  %48 = tail call i64 asm "", "=r,0,~{dirflag},~{fpsr},~{flags}"(i64 range(i64 -1, 1) %.neg.i) #10, !srcloc !55
  %49 = and i64 %48, %47
  %50 = xor i64 %.neg.i, -1
  %51 = tail call i64 asm "", "=r,0,~{dirflag},~{fpsr},~{flags}"(i64 range(i64 -1, 1) %50) #10, !srcloc !55
  %52 = and i64 %51, %46
  %53 = or i64 %52, %49
  store i64 %53, ptr %2, align 8, !tbaa !54
  %.neg.i39 = ashr i32 %.035, 31
  %54 = tail call i32 asm "", "=r,0,~{dirflag},~{fpsr},~{flags}"(i32 range(i32 -1, 1) %.neg.i39) #10, !srcloc !56
  %55 = and i32 %54, %.035
  %56 = xor i32 %.neg.i39, -1
  %57 = tail call i32 asm "", "=r,0,~{dirflag},~{fpsr},~{flags}"(i32 range(i32 -1, 1) %56) #10, !srcloc !56
  %58 = and i32 %57, 1
  %59 = or i32 %58, %55
  br label %60

60:                                               ; preds = %setup_tbuf.exit.thread, %setup_tbuf.exit, %45
  %.0 = phi i32 [ %59, %45 ], [ -1, %setup_tbuf.exit ], [ %23, %setup_tbuf.exit.thread ]
  ret i32 %.0
}